(dp1
S'magnetization_sph_coord'
p2
(lp3
cnumpy.core.multiarray
scalar
p4
(cnumpy
dtype
p5
(S'f8'
I0
I1
tRp6
(I3
S'<'
NNNI-1
I-1
I0
tbS'\xff\xff\xff\xff\xff\xff-@'
tRp7
ag4
(g6
S'\xff\xff\xff\xff\xff\xffC@'
tRp8
ag4
(g6
S'\x00\x00\x00\x00\x00\x80F@'
tRp9
asS'm_I'
p10
F15
sS'magnetization'
p11
cnumpy.core.multiarray
_reconstruct
p12
(cnumpy
ndarray
p13
(I0
tS'b'
tRp14
(I1
(I3
tg6
I00
S'\xb3\xaf>\xd1\x10@ @\xb3\xaf>\xd1\x10@ @\xbaT\x18\xdd\x9bH#@'
tbsS'dec_I'
p15
F45
sS'yc'
p16
F0
sS'main_field'
p17
(F40
F45
tp18
sS'inc_I'
p19
F40
sS'zc'
p20
F2000
sS'radius'
p21
F1500
sS'xc'
p22
F0
sS'model'
p23
(lp24
ccopy_reg
_reconstructor
p25
(cfatiando.mesher
Sphere
p26
c__builtin__
object
p27
NtRp28
(dp29
S'center'
p30
g12
(g13
(I0
tS'b'
tRp31
(I1
(I3
tg6
I00
S'\x00\x00\x00\x00\x00\x00\x00\x00\x00\x00\x00\x00\x00\x00\x00\x00\x00\x00\x00\x00\x00@\x9f@'
tbsg21
F1500
sS'props'
p32
(dp33
g11
g14
ssS'y'
F0
sS'x'
F0
sS'z'
F2000
sbasS'metadata'
p34
S'Generated by synthetic_model.ipynb on 31 August 2018 15:18:56 UTC'
p35
s.