(dp1
S'magnetization_sph_coord'
p2
(lp3
cnumpy.core.multiarray
scalar
p4
(cnumpy
dtype
p5
(S'f8'
I0
I1
tRp6
(I3
S'<'
NNNI-1
I-1
I0
tbS'\x00\x00\x00\x00\x00\x00.@'
tRp7
ag4
(g6
S'\xff\xff\xff\xff\xff\xffM@'
tRp8
ag4
(g6
S'\xff\xff\xff\xff\xff\xff#@'
tRp9
asS'magnetization'
p10
cnumpy.core.multiarray
_reconstruct
p11
(cnumpy
ndarray
p12
(I0
tS'b'
tRp13
(I1
(I3
tg6
I00
S'W\n\xb9\xd3R\x8b\x1d@Q\xbc*\xd6x\xd6\xf4?\xdf\xc7\xd29\x13\xfb)@'
tbsS'xc'
p14
F0
sS'yc'
p15
F0
sS'main_field'
p16
(F40
F45
tp17
sS'zc'
p18
F2000
sS'dec_R'
p19
F10
sS'radius'
p20
F1500
sS'inc_R'
p21
F60
sS'm_R'
p22
F15
sS'model'
p23
(lp24
ccopy_reg
_reconstructor
p25
(cfatiando.mesher
Sphere
p26
c__builtin__
object
p27
NtRp28
(dp29
S'center'
p30
g11
(g12
(I0
tS'b'
tRp31
(I1
(I3
tg6
I00
S'\x00\x00\x00\x00\x00\x00\x00\x00\x00\x00\x00\x00\x00\x00\x00\x00\x00\x00\x00\x00\x00@\x9f@'
tbsg20
F1500
sS'props'
p32
(dp33
g10
g13
ssS'y'
F0
sS'x'
F0
sS'z'
F2000
sbasS'metadata'
p34
S'Generated by synthetic_model.ipynb on 04 December 2018 17:13:24 UTC'
p35
s.