(dp1
S'm_I'
p2
F5
sS'magnetization_I'
p3
cnumpy.core.multiarray
_reconstruct
p4
(cnumpy
ndarray
p5
(I0
tS'b'
tRp6
(I1
(I3
tcnumpy
dtype
p7
(S'f8'
I0
I1
tRp8
(I3
S'<'
NNNI-1
I-1
I0
tbI00
S'K\xd5;\xdc[\x89\n@?&%\rND\x06@\xff\xff\xff\xff\xff\xff\x03@'
tbsS'dec_I'
p9
F40
sS'inc_I'
p10
F30
sS'dec_P'
p11
F0
sS'dec_R'
p12
F30
sS'inc_P'
p13
F90
sS'inc_R'
p14
F55
sS'main_field_P'
p15
(F90
F0
tp16
sS'metadata'
p17
S'Generated by synthetic_model.ipynb on 05 April 2019 19:08:00 UTC'
p18
sS'magnetization_P'
p19
g4
(g5
(I0
tS'b'
tRp20
(I1
(I3
tg8
I00
S'\ts\xd9\xbf\xaf\x0f\xb6<\x00\x00\x00\x00\x00\x00\x00\x00\x00\x00\x00\x00\x00\x00\x14@'
tbsS'magnetization_R'
p21
g4
(g5
(I0
tS'b'
tRp22
(I1
(I3
tg8
I00
S'\xb6\xd8\x8b\x84\x88\xde\x03@\xd6[\x9b6l\xf1\xf6?\x8ct\xad\xf7\x0eb\x10@'
tbsS'y_min'
p23
F-1250
sS'magnetization_sph_coord_I'
p24
(lp25
cnumpy.core.multiarray
scalar
p26
(g8
S'\x00\x00\x00\x00\x00\x00\x14@'
tRp27
ag26
(g8
S'\xfe\xff\xff\xff\xff\xff=@'
tRp28
ag26
(g8
S'\x01\x00\x00\x00\x00\x00D@'
tRp29
asS'main_field'
p30
(F30
F40
tp31
sS'x_max'
p32
F1250
sS'm_R'
p33
F5
sS'm_P'
p34
F5
sS'magnetization_sph_coord_R'
p35
(lp36
g26
(g8
S'\x00\x00\x00\x00\x00\x00\x14@'
tRp37
ag26
(g8
S'\xff\xff\xff\xff\xff\x7fK@'
tRp38
ag26
(g8
S'\xfe\xff\xff\xff\xff\xff=@'
tRp39
asS'magnetization_sph_coord_P'
p40
(lp41
g26
(g8
S'\x00\x00\x00\x00\x00\x00\x14@'
tRp42
ag26
(g8
S'\x00\x00\x00\x00\x00\x80V@'
tRp43
ag26
(g8
S'\x00\x00\x00\x00\x00\x00\x00\x00'
tRp44
asS'model_I'
p45
(lp46
ccopy_reg
_reconstructor
p47
(cfatiando.mesher
Prism
p48
c__builtin__
object
p49
NtRp50
(dp51
S'y2'
p52
F1250
sS'y1'
p53
F-1250
sS'props'
p54
(dp55
S'magnetization'
p56
g6
ssS'x2'
p57
F1250
sS'x1'
p58
F-1250
sS'z1'
p59
F500
sS'z2'
p60
F3000
sbasS'y_max'
p61
F1250
sS'model_P'
p62
(lp63
g47
(g48
g49
NtRp64
(dp65
g52
F1250
sg53
F-1250
sg54
(dp66
g56
g20
ssg57
F1250
sg58
F-1250
sg59
F500
sg60
F3000
sbasS'model_R'
p67
(lp68
g47
(g48
g49
NtRp69
(dp70
g52
F1250
sg53
F-1250
sg54
(dp71
g56
g22
ssg57
F1250
sg58
F-1250
sg59
F500
sg60
F3000
sbasS'x_min'
p72
F-1250
sS'z_top'
p73
I500
sS'z_bottom'
p74
F3000
s.