(dp1
S'magnetization_R'
p2
cnumpy.core.multiarray
_reconstruct
p3
(cnumpy
ndarray
p4
(I0
tS'b'
tRp5
(I1
(I3
tcnumpy
dtype
p6
(S'f8'
I0
I1
tRp7
(I3
S'<'
NNNI-1
I-1
I0
tbI00
S'\x82\xe7\x1e\x14#9\x00@\x81\xe7\x1e\x14#9\x00@\x8ct\xad\xf7\x0eb\x10@'
tbsS'z_tops'
p8
g3
(g4
(I0
tS'b'
tRp9
(I1
(I40
tg7
I00
S"\x00\x00\x00\x00\x00\xc0r@\xc5N\xec\xc4N\xact@\x8a\x9d\xd8\x89\x9d\x98v@O\xec\xc4N\xec\x84x@\x14;\xb1\x13;qz@\xd8\x89\x9d\xd8\x89]|@\x9e\xd8\x89\x9d\xd8I~@\xb1\x13;\xb1\x13\x1b\x80@\x14;\xb1\x13;\x11\x81@vb'vb\x07\x82@\xd8\x89\x9d\xd8\x89\xfd\x82@;\xb1\x13;\xb1\xf3\x83@\x9e\xd8\x89\x9d\xd8\xe9\x84@\x00\x00\x00\x00\x00\xe0\x85@b'vb'\xd6\x86@\xc5N\xec\xc4N\xcc\x87@(vb'v\xc2\x88@\x8a\x9d\xd8\x89\x9d\xb8\x89@\xec\xc4N\xec\xc4\xae\x8a@O\xec\xc4N\xec\xa4\x8b@\xb1\x13;\xb1\x13\x9b\x8c@\x14;\xb1\x13;\x91\x8d@vb'vb\x87\x8e@\xd9\x89\x9d\xd8\x89}\x8f@\x9e\xd8\x89\x9d\xd89\x90@O\xec\xc4N\xec\xb4\x90@\x00\x00\x00\x00\x000\x91@\xb2\x13;\xb1\x13\xab\x91@b'vb'&\x92@\x14;\xb1\x13;\xa1\x92@\xc5N\xec\xc4N\x1c\x93@vb'vb\x97\x93@(vb'v\x12\x94@\xd8\x89\x9d\xd8\x89\x8d\x94@\x8a\x9d\xd8\x89\x9d\x08\x95@;\xb1\x13;\xb1\x83\x95@\xec\xc4N\xec\xc4\xfe\x95@\x9e\xd8\x89\x9d\xd8y\x96@O\xec\xc4N\xec\xf4\x96@\x00\x00\x00\x00\x00p\x97@"
tbsS'verts_x'
p10
g3
(g4
(I0
tS'b'
tRp11
(I1
(I41
tg7
I00
S'\x00\x00\x00\x00\x00\x88\xa3\xc0\x00\x00\x00\x00\x00\x8e\xa2\xc0\x00\x00\x00\x00\x00\x94\xa1\xc0\x00\x00\x00\x00\x00\x9a\xa0\xc0\x00\x00\x00\x00\x00@\x9f\xc0\x00\x00\x00\x00\x00L\x9d\xc0\x00\x00\x00\x00\x00X\x9b\xc0\x00\x00\x00\x00\x00d\x99\xc0\x00\x00\x00\x00\x00p\x97\xc0\x00\x00\x00\x00\x00|\x95\xc0\x00\x00\x00\x00\x00\x88\x93\xc0\x00\x00\x00\x00\x00\x94\x91\xc0\x00\x00\x00\x00\x00@\x8f\xc0\x00\x00\x00\x00\x00X\x8b\xc0\x00\x00\x00\x00\x00p\x87\xc0\x00\x00\x00\x00\x00\x88\x83\xc0\x00\x00\x00\x00\x00@\x7f\xc0\x00\x00\x00\x00\x00pw\xc0\x00\x00\x00\x00\x00@o\xc0\x00\x00\x00\x00\x00@_\xc0\x00\x00\x00\x00\x00\x00\x00\x00\x00\x00\x00\x00\x00@_@\x00\x00\x00\x00\x00@o@\x00\x00\x00\x00\x00pw@\x00\x00\x00\x00\x00@\x7f@\x00\x00\x00\x00\x00\x88\x83@\x00\x00\x00\x00\x00p\x87@\x00\x00\x00\x00\x00X\x8b@\x00\x00\x00\x00\x00@\x8f@\x00\x00\x00\x00\x00\x94\x91@\x00\x00\x00\x00\x00\x88\x93@\x00\x00\x00\x00\x00|\x95@\x00\x00\x00\x00\x00p\x97@\x00\x00\x00\x00\x00d\x99@\x00\x00\x00\x00\x00X\x9b@\x00\x00\x00\x00\x00L\x9d@\x00\x00\x00\x00\x00@\x9f@\x00\x00\x00\x00\x00\x9a\xa0@\x00\x00\x00\x00\x00\x94\xa1@\x00\x00\x00\x00\x00\x8e\xa2@\x00\x00\x00\x00\x00\x88\xa3@'
tbsS'm_I'
p12
F5
sS'magnetization_I'
p13
g3
(g4
(I0
tS'b'
tRp14
(I1
(I3
tg7
I00
S'\x01\x00\x00\x00\x00\x00\x0e@\xea/7\xd1\x0cR\x01@\xff\xff\xff\xff\xff\xff\x03@'
tbsS'z_bottoms'
p15
g3
(g4
(I0
tS'b'
tRp16
(I1
(I40
tg7
I00
S"\x00\x00\x00\x00\x00\x00y@\xc5N\xec\xc4N\xecz@\x8a\x9d\xd8\x89\x9d\xd8|@O\xec\xc4N\xec\xc4~@\x8a\x9d\xd8\x89\x9dX\x80@\xec\xc4N\xec\xc4N\x81@O\xec\xc4N\xecD\x82@\xb1\x13;\xb1\x13;\x83@\x14;\xb1\x13;1\x84@vb'vb'\x85@\xd8\x89\x9d\xd8\x89\x1d\x86@;\xb1\x13;\xb1\x13\x87@\x9e\xd8\x89\x9d\xd8\t\x88@\x00\x00\x00\x00\x00\x00\x89@b'vb'\xf6\x89@\xc5N\xec\xc4N\xec\x8a@(vb'v\xe2\x8b@\x8a\x9d\xd8\x89\x9d\xd8\x8c@\xec\xc4N\xec\xc4\xce\x8d@O\xec\xc4N\xec\xc4\x8e@\xb1\x13;\xb1\x13\xbb\x8f@\x8a\x9d\xd8\x89\x9dX\x90@;\xb1\x13;\xb1\xd3\x90@\xec\xc4N\xec\xc4N\x91@\x9e\xd8\x89\x9d\xd8\xc9\x91@O\xec\xc4N\xecD\x92@\x00\x00\x00\x00\x00\xc0\x92@\xb2\x13;\xb1\x13;\x93@b'vb'\xb6\x93@\x14;\xb1\x13;1\x94@\xc5N\xec\xc4N\xac\x94@vb'vb'\x95@(vb'v\xa2\x95@\xd8\x89\x9d\xd8\x89\x1d\x96@\x8a\x9d\xd8\x89\x9d\x98\x96@;\xb1\x13;\xb1\x13\x97@\xec\xc4N\xec\xc4\x8e\x97@\x9e\xd8\x89\x9d\xd8\t\x98@O\xec\xc4N\xec\x84\x98@\x00\x00\x00\x00\x00\x00\x99@"
tbsS'z_thick'
p17
F100
sS'dec_I'
p18
F30
sS'magnetization_sph_coord_I'
p19
(lp20
cnumpy.core.multiarray
scalar
p21
(g7
S'\x00\x00\x00\x00\x00\x00\x14@'
tRp22
ag21
(g7
S'\xfe\xff\xff\xff\xff\xff=@'
tRp23
ag21
(g7
S'\xff\xff\xff\xff\xff\xff=@'
tRp24
asS'z_max'
p25
F1500
sS'inc_I'
p26
F30
sS'dec_P'
p27
F0
sS'dec_R'
p28
F45
sS'inc_P'
p29
F90
sS'inc_R'
p30
F55
sS'main_field_P'
p31
(F90
F0
tp32
sS'metadata'
p33
S'Generated by synthetic_model.ipynb on 06 April 2019 22:01:43 UTC'
p34
sS'magnetization_P'
p35
g3
(g4
(I0
tS'b'
tRp36
(I1
(I3
tg7
I00
S'\ts\xd9\xbf\xaf\x0f\xb6<\x00\x00\x00\x00\x00\x00\x00\x00\x00\x00\x00\x00\x00\x00\x14@'
tbsS'x_mins'
p37
g3
(g4
(I0
tS'b'
tRp38
(I1
(I40
tg7
I00
S'\x00\x00\x00\x00\x00\x88\xa3\xc0\x00\x00\x00\x00\x00\x8e\xa2\xc0\x00\x00\x00\x00\x00\x94\xa1\xc0\x00\x00\x00\x00\x00\x9a\xa0\xc0\x00\x00\x00\x00\x00@\x9f\xc0\x00\x00\x00\x00\x00L\x9d\xc0\x00\x00\x00\x00\x00X\x9b\xc0\x00\x00\x00\x00\x00d\x99\xc0\x00\x00\x00\x00\x00p\x97\xc0\x00\x00\x00\x00\x00|\x95\xc0\x00\x00\x00\x00\x00\x88\x93\xc0\x00\x00\x00\x00\x00\x94\x91\xc0\x00\x00\x00\x00\x00@\x8f\xc0\x00\x00\x00\x00\x00X\x8b\xc0\x00\x00\x00\x00\x00p\x87\xc0\x00\x00\x00\x00\x00\x88\x83\xc0\x00\x00\x00\x00\x00@\x7f\xc0\x00\x00\x00\x00\x00pw\xc0\x00\x00\x00\x00\x00@o\xc0\x00\x00\x00\x00\x00@_\xc0\x00\x00\x00\x00\x00\x00\x00\x00\x00\x00\x00\x00\x00@_@\x00\x00\x00\x00\x00@o@\x00\x00\x00\x00\x00pw@\x00\x00\x00\x00\x00@\x7f@\x00\x00\x00\x00\x00\x88\x83@\x00\x00\x00\x00\x00p\x87@\x00\x00\x00\x00\x00X\x8b@\x00\x00\x00\x00\x00@\x8f@\x00\x00\x00\x00\x00\x94\x91@\x00\x00\x00\x00\x00\x88\x93@\x00\x00\x00\x00\x00|\x95@\x00\x00\x00\x00\x00p\x97@\x00\x00\x00\x00\x00d\x99@\x00\x00\x00\x00\x00X\x9b@\x00\x00\x00\x00\x00L\x9d@\x00\x00\x00\x00\x00@\x9f@\x00\x00\x00\x00\x00\x9a\xa0@\x00\x00\x00\x00\x00\x94\xa1@\x00\x00\x00\x00\x00\x8e\xa2@'
tbsS'y_min'
p39
I-2000
sS'N_prism'
p40
I41
sS'x_maxs'
p41
g3
(g4
(I0
tS'b'
tRp42
(I1
(I40
tg7
I00
S'\x00\x00\x00\x00\x00\x8e\xa2\xc0\x00\x00\x00\x00\x00\x94\xa1\xc0\x00\x00\x00\x00\x00\x9a\xa0\xc0\x00\x00\x00\x00\x00@\x9f\xc0\x00\x00\x00\x00\x00L\x9d\xc0\x00\x00\x00\x00\x00X\x9b\xc0\x00\x00\x00\x00\x00d\x99\xc0\x00\x00\x00\x00\x00p\x97\xc0\x00\x00\x00\x00\x00|\x95\xc0\x00\x00\x00\x00\x00\x88\x93\xc0\x00\x00\x00\x00\x00\x94\x91\xc0\x00\x00\x00\x00\x00@\x8f\xc0\x00\x00\x00\x00\x00X\x8b\xc0\x00\x00\x00\x00\x00p\x87\xc0\x00\x00\x00\x00\x00\x88\x83\xc0\x00\x00\x00\x00\x00@\x7f\xc0\x00\x00\x00\x00\x00pw\xc0\x00\x00\x00\x00\x00@o\xc0\x00\x00\x00\x00\x00@_\xc0\x00\x00\x00\x00\x00\x00\x00\x00\x00\x00\x00\x00\x00@_@\x00\x00\x00\x00\x00@o@\x00\x00\x00\x00\x00pw@\x00\x00\x00\x00\x00@\x7f@\x00\x00\x00\x00\x00\x88\x83@\x00\x00\x00\x00\x00p\x87@\x00\x00\x00\x00\x00X\x8b@\x00\x00\x00\x00\x00@\x8f@\x00\x00\x00\x00\x00\x94\x91@\x00\x00\x00\x00\x00\x88\x93@\x00\x00\x00\x00\x00|\x95@\x00\x00\x00\x00\x00p\x97@\x00\x00\x00\x00\x00d\x99@\x00\x00\x00\x00\x00X\x9b@\x00\x00\x00\x00\x00L\x9d@\x00\x00\x00\x00\x00@\x9f@\x00\x00\x00\x00\x00\x9a\xa0@\x00\x00\x00\x00\x00\x94\xa1@\x00\x00\x00\x00\x00\x8e\xa2@\x00\x00\x00\x00\x00\x88\xa3@'
tbsS'main_field'
p43
(F30
F30
tp44
sS'verts_x_min'
p45
F-2500
sS'z_min'
p46
F300
sS'm_R'
p47
F5
sS'm_P'
p48
F5
sS'magnetization_sph_coord_R'
p49
(lp50
g21
(g7
S'\x00\x00\x00\x00\x00\x00\x14@'
tRp51
ag21
(g7
S'\xff\xff\xff\xff\xff\x7fK@'
tRp52
ag21
(g7
S'\xff\xff\xff\xff\xff\x7fF@'
tRp53
asS'magnetization_sph_coord_P'
p54
(lp55
g21
(g7
S'\x00\x00\x00\x00\x00\x00\x14@'
tRp56
ag21
(g7
S'\x00\x00\x00\x00\x00\x80V@'
tRp57
ag21
(g7
S'\x00\x00\x00\x00\x00\x00\x00\x00'
tRp58
asS'verts_x_max'
p59
F2500
sS'model_I'
p60
(lp61
ccopy_reg
_reconstructor
p62
(cfatiando.mesher
Prism
p63
c__builtin__
object
p64
NtRp65
(dp66
S'y2'
p67
F2000
sS'y1'
p68
F-2000
sS'props'
p69
(dp70
S'magnetization'
p71
g14
ssS'x2'
p72
F-2375
sS'x1'
p73
F-2500
sS'z1'
p74
F300
sS'z2'
p75
F400
sbag62
(g63
g64
NtRp76
(dp77
g67
F2000
sg68
F-2000
sg69
(dp78
g71
g14
ssg72
F-2250
sg73
F-2375
sg74
F330.76923076923077
sg75
F430.76923076923077
sbag62
(g63
g64
NtRp79
(dp80
g67
F2000
sg68
F-2000
sg69
(dp81
g71
g14
ssg72
F-2125
sg73
F-2250
sg74
F361.53846153846155
sg75
F461.53846153846155
sbag62
(g63
g64
NtRp82
(dp83
g67
F2000
sg68
F-2000
sg69
(dp84
g71
g14
ssg72
F-2000
sg73
F-2125
sg74
F392.30769230769232
sg75
F492.30769230769232
sbag62
(g63
g64
NtRp85
(dp86
g67
F2000
sg68
F-2000
sg69
(dp87
g71
g14
ssg72
F-1875
sg73
F-2000
sg74
F423.07692307692309
sg75
F523.07692307692309
sbag62
(g63
g64
NtRp88
(dp89
g67
F2000
sg68
F-2000
sg69
(dp90
g71
g14
ssg72
F-1750
sg73
F-1875
sg74
F453.84615384615381
sg75
F553.84615384615381
sbag62
(g63
g64
NtRp91
(dp92
g67
F2000
sg68
F-2000
sg69
(dp93
g71
g14
ssg72
F-1625
sg73
F-1750
sg74
F484.61538461538464
sg75
F584.61538461538464
sbag62
(g63
g64
NtRp94
(dp95
g67
F2000
sg68
F-2000
sg69
(dp96
g71
g14
ssg72
F-1500
sg73
F-1625
sg74
F515.38461538461536
sg75
F615.38461538461536
sbag62
(g63
g64
NtRp97
(dp98
g67
F2000
sg68
F-2000
sg69
(dp99
g71
g14
ssg72
F-1375
sg73
F-1500
sg74
F546.15384615384619
sg75
F646.15384615384619
sbag62
(g63
g64
NtRp100
(dp101
g67
F2000
sg68
F-2000
sg69
(dp102
g71
g14
ssg72
F-1250
sg73
F-1375
sg74
F576.92307692307691
sg75
F676.92307692307691
sbag62
(g63
g64
NtRp103
(dp104
g67
F2000
sg68
F-2000
sg69
(dp105
g71
g14
ssg72
F-1125
sg73
F-1250
sg74
F607.69230769230762
sg75
F707.69230769230762
sbag62
(g63
g64
NtRp106
(dp107
g67
F2000
sg68
F-2000
sg69
(dp108
g71
g14
ssg72
F-1000
sg73
F-1125
sg74
F638.46153846153845
sg75
F738.46153846153845
sbag62
(g63
g64
NtRp109
(dp110
g67
F2000
sg68
F-2000
sg69
(dp111
g71
g14
ssg72
F-875
sg73
F-1000
sg74
F669.23076923076928
sg75
F769.23076923076928
sbag62
(g63
g64
NtRp112
(dp113
g67
F2000
sg68
F-2000
sg69
(dp114
g71
g14
ssg72
F-750
sg73
F-875
sg74
F700
sg75
F800
sbag62
(g63
g64
NtRp115
(dp116
g67
F2000
sg68
F-2000
sg69
(dp117
g71
g14
ssg72
F-625
sg73
F-750
sg74
F730.76923076923072
sg75
F830.76923076923072
sbag62
(g63
g64
NtRp118
(dp119
g67
F2000
sg68
F-2000
sg69
(dp120
g71
g14
ssg72
F-500
sg73
F-625
sg74
F761.53846153846155
sg75
F861.53846153846155
sbag62
(g63
g64
NtRp121
(dp122
g67
F2000
sg68
F-2000
sg69
(dp123
g71
g14
ssg72
F-375
sg73
F-500
sg74
F792.30769230769238
sg75
F892.30769230769238
sbag62
(g63
g64
NtRp124
(dp125
g67
F2000
sg68
F-2000
sg69
(dp126
g71
g14
ssg72
F-250
sg73
F-375
sg74
F823.07692307692309
sg75
F923.07692307692309
sbag62
(g63
g64
NtRp127
(dp128
g67
F2000
sg68
F-2000
sg69
(dp129
g71
g14
ssg72
F-125
sg73
F-250
sg74
F853.84615384615381
sg75
F953.84615384615381
sbag62
(g63
g64
NtRp130
(dp131
g67
F2000
sg68
F-2000
sg69
(dp132
g71
g14
ssg72
F0
sg73
F-125
sg74
F884.61538461538464
sg75
F984.61538461538464
sbag62
(g63
g64
NtRp133
(dp134
g67
F2000
sg68
F-2000
sg69
(dp135
g71
g14
ssg72
F125
sg73
F0
sg74
F915.38461538461536
sg75
F1015.3846153846154
sbag62
(g63
g64
NtRp136
(dp137
g67
F2000
sg68
F-2000
sg69
(dp138
g71
g14
ssg72
F250
sg73
F125
sg74
F946.15384615384619
sg75
F1046.1538461538462
sbag62
(g63
g64
NtRp139
(dp140
g67
F2000
sg68
F-2000
sg69
(dp141
g71
g14
ssg72
F375
sg73
F250
sg74
F976.92307692307691
sg75
F1076.9230769230769
sbag62
(g63
g64
NtRp142
(dp143
g67
F2000
sg68
F-2000
sg69
(dp144
g71
g14
ssg72
F500
sg73
F375
sg74
F1007.6923076923077
sg75
F1107.6923076923076
sbag62
(g63
g64
NtRp145
(dp146
g67
F2000
sg68
F-2000
sg69
(dp147
g71
g14
ssg72
F625
sg73
F500
sg74
F1038.4615384615386
sg75
F1138.4615384615386
sbag62
(g63
g64
NtRp148
(dp149
g67
F2000
sg68
F-2000
sg69
(dp150
g71
g14
ssg72
F750
sg73
F625
sg74
F1069.2307692307693
sg75
F1169.2307692307693
sbag62
(g63
g64
NtRp151
(dp152
g67
F2000
sg68
F-2000
sg69
(dp153
g71
g14
ssg72
F875
sg73
F750
sg74
F1100
sg75
F1200
sbag62
(g63
g64
NtRp154
(dp155
g67
F2000
sg68
F-2000
sg69
(dp156
g71
g14
ssg72
F1000
sg73
F875
sg74
F1130.7692307692309
sg75
F1230.7692307692309
sbag62
(g63
g64
NtRp157
(dp158
g67
F2000
sg68
F-2000
sg69
(dp159
g71
g14
ssg72
F1125
sg73
F1000
sg74
F1161.5384615384614
sg75
F1261.5384615384614
sbag62
(g63
g64
NtRp160
(dp161
g67
F2000
sg68
F-2000
sg69
(dp162
g71
g14
ssg72
F1250
sg73
F1125
sg74
F1192.3076923076924
sg75
F1292.3076923076924
sbag62
(g63
g64
NtRp163
(dp164
g67
F2000
sg68
F-2000
sg69
(dp165
g71
g14
ssg72
F1375
sg73
F1250
sg74
F1223.0769230769231
sg75
F1323.0769230769231
sbag62
(g63
g64
NtRp166
(dp167
g67
F2000
sg68
F-2000
sg69
(dp168
g71
g14
ssg72
F1500
sg73
F1375
sg74
F1253.8461538461538
sg75
F1353.8461538461538
sbag62
(g63
g64
NtRp169
(dp170
g67
F2000
sg68
F-2000
sg69
(dp171
g71
g14
ssg72
F1625
sg73
F1500
sg74
F1284.6153846153848
sg75
F1384.6153846153848
sbag62
(g63
g64
NtRp172
(dp173
g67
F2000
sg68
F-2000
sg69
(dp174
g71
g14
ssg72
F1750
sg73
F1625
sg74
F1315.3846153846152
sg75
F1415.3846153846152
sbag62
(g63
g64
NtRp175
(dp176
g67
F2000
sg68
F-2000
sg69
(dp177
g71
g14
ssg72
F1875
sg73
F1750
sg74
F1346.1538461538462
sg75
F1446.1538461538462
sbag62
(g63
g64
NtRp178
(dp179
g67
F2000
sg68
F-2000
sg69
(dp180
g71
g14
ssg72
F2000
sg73
F1875
sg74
F1376.9230769230769
sg75
F1476.9230769230769
sbag62
(g63
g64
NtRp181
(dp182
g67
F2000
sg68
F-2000
sg69
(dp183
g71
g14
ssg72
F2125
sg73
F2000
sg74
F1407.6923076923076
sg75
F1507.6923076923076
sbag62
(g63
g64
NtRp184
(dp185
g67
F2000
sg68
F-2000
sg69
(dp186
g71
g14
ssg72
F2250
sg73
F2125
sg74
F1438.4615384615386
sg75
F1538.4615384615386
sbag62
(g63
g64
NtRp187
(dp188
g67
F2000
sg68
F-2000
sg69
(dp189
g71
g14
ssg72
F2375
sg73
F2250
sg74
F1469.2307692307693
sg75
F1569.2307692307693
sbag62
(g63
g64
NtRp190
(dp191
g67
F2000
sg68
F-2000
sg69
(dp192
g71
g14
ssg72
F2500
sg73
F2375
sg74
F1500
sg75
F1600
sbasS'y_max'
p193
F2000
sS'model_P'
p194
(lp195
g62
(g63
g64
NtRp196
(dp197
g67
F2000
sg68
F-2000
sg69
(dp198
g71
g36
ssg72
F-2375
sg73
F-2500
sg74
F300
sg75
F400
sbag62
(g63
g64
NtRp199
(dp200
g67
F2000
sg68
F-2000
sg69
(dp201
g71
g36
ssg72
F-2250
sg73
F-2375
sg74
F330.76923076923077
sg75
F430.76923076923077
sbag62
(g63
g64
NtRp202
(dp203
g67
F2000
sg68
F-2000
sg69
(dp204
g71
g36
ssg72
F-2125
sg73
F-2250
sg74
F361.53846153846155
sg75
F461.53846153846155
sbag62
(g63
g64
NtRp205
(dp206
g67
F2000
sg68
F-2000
sg69
(dp207
g71
g36
ssg72
F-2000
sg73
F-2125
sg74
F392.30769230769232
sg75
F492.30769230769232
sbag62
(g63
g64
NtRp208
(dp209
g67
F2000
sg68
F-2000
sg69
(dp210
g71
g36
ssg72
F-1875
sg73
F-2000
sg74
F423.07692307692309
sg75
F523.07692307692309
sbag62
(g63
g64
NtRp211
(dp212
g67
F2000
sg68
F-2000
sg69
(dp213
g71
g36
ssg72
F-1750
sg73
F-1875
sg74
F453.84615384615381
sg75
F553.84615384615381
sbag62
(g63
g64
NtRp214
(dp215
g67
F2000
sg68
F-2000
sg69
(dp216
g71
g36
ssg72
F-1625
sg73
F-1750
sg74
F484.61538461538464
sg75
F584.61538461538464
sbag62
(g63
g64
NtRp217
(dp218
g67
F2000
sg68
F-2000
sg69
(dp219
g71
g36
ssg72
F-1500
sg73
F-1625
sg74
F515.38461538461536
sg75
F615.38461538461536
sbag62
(g63
g64
NtRp220
(dp221
g67
F2000
sg68
F-2000
sg69
(dp222
g71
g36
ssg72
F-1375
sg73
F-1500
sg74
F546.15384615384619
sg75
F646.15384615384619
sbag62
(g63
g64
NtRp223
(dp224
g67
F2000
sg68
F-2000
sg69
(dp225
g71
g36
ssg72
F-1250
sg73
F-1375
sg74
F576.92307692307691
sg75
F676.92307692307691
sbag62
(g63
g64
NtRp226
(dp227
g67
F2000
sg68
F-2000
sg69
(dp228
g71
g36
ssg72
F-1125
sg73
F-1250
sg74
F607.69230769230762
sg75
F707.69230769230762
sbag62
(g63
g64
NtRp229
(dp230
g67
F2000
sg68
F-2000
sg69
(dp231
g71
g36
ssg72
F-1000
sg73
F-1125
sg74
F638.46153846153845
sg75
F738.46153846153845
sbag62
(g63
g64
NtRp232
(dp233
g67
F2000
sg68
F-2000
sg69
(dp234
g71
g36
ssg72
F-875
sg73
F-1000
sg74
F669.23076923076928
sg75
F769.23076923076928
sbag62
(g63
g64
NtRp235
(dp236
g67
F2000
sg68
F-2000
sg69
(dp237
g71
g36
ssg72
F-750
sg73
F-875
sg74
F700
sg75
F800
sbag62
(g63
g64
NtRp238
(dp239
g67
F2000
sg68
F-2000
sg69
(dp240
g71
g36
ssg72
F-625
sg73
F-750
sg74
F730.76923076923072
sg75
F830.76923076923072
sbag62
(g63
g64
NtRp241
(dp242
g67
F2000
sg68
F-2000
sg69
(dp243
g71
g36
ssg72
F-500
sg73
F-625
sg74
F761.53846153846155
sg75
F861.53846153846155
sbag62
(g63
g64
NtRp244
(dp245
g67
F2000
sg68
F-2000
sg69
(dp246
g71
g36
ssg72
F-375
sg73
F-500
sg74
F792.30769230769238
sg75
F892.30769230769238
sbag62
(g63
g64
NtRp247
(dp248
g67
F2000
sg68
F-2000
sg69
(dp249
g71
g36
ssg72
F-250
sg73
F-375
sg74
F823.07692307692309
sg75
F923.07692307692309
sbag62
(g63
g64
NtRp250
(dp251
g67
F2000
sg68
F-2000
sg69
(dp252
g71
g36
ssg72
F-125
sg73
F-250
sg74
F853.84615384615381
sg75
F953.84615384615381
sbag62
(g63
g64
NtRp253
(dp254
g67
F2000
sg68
F-2000
sg69
(dp255
g71
g36
ssg72
F0
sg73
F-125
sg74
F884.61538461538464
sg75
F984.61538461538464
sbag62
(g63
g64
NtRp256
(dp257
g67
F2000
sg68
F-2000
sg69
(dp258
g71
g36
ssg72
F125
sg73
F0
sg74
F915.38461538461536
sg75
F1015.3846153846154
sbag62
(g63
g64
NtRp259
(dp260
g67
F2000
sg68
F-2000
sg69
(dp261
g71
g36
ssg72
F250
sg73
F125
sg74
F946.15384615384619
sg75
F1046.1538461538462
sbag62
(g63
g64
NtRp262
(dp263
g67
F2000
sg68
F-2000
sg69
(dp264
g71
g36
ssg72
F375
sg73
F250
sg74
F976.92307692307691
sg75
F1076.9230769230769
sbag62
(g63
g64
NtRp265
(dp266
g67
F2000
sg68
F-2000
sg69
(dp267
g71
g36
ssg72
F500
sg73
F375
sg74
F1007.6923076923077
sg75
F1107.6923076923076
sbag62
(g63
g64
NtRp268
(dp269
g67
F2000
sg68
F-2000
sg69
(dp270
g71
g36
ssg72
F625
sg73
F500
sg74
F1038.4615384615386
sg75
F1138.4615384615386
sbag62
(g63
g64
NtRp271
(dp272
g67
F2000
sg68
F-2000
sg69
(dp273
g71
g36
ssg72
F750
sg73
F625
sg74
F1069.2307692307693
sg75
F1169.2307692307693
sbag62
(g63
g64
NtRp274
(dp275
g67
F2000
sg68
F-2000
sg69
(dp276
g71
g36
ssg72
F875
sg73
F750
sg74
F1100
sg75
F1200
sbag62
(g63
g64
NtRp277
(dp278
g67
F2000
sg68
F-2000
sg69
(dp279
g71
g36
ssg72
F1000
sg73
F875
sg74
F1130.7692307692309
sg75
F1230.7692307692309
sbag62
(g63
g64
NtRp280
(dp281
g67
F2000
sg68
F-2000
sg69
(dp282
g71
g36
ssg72
F1125
sg73
F1000
sg74
F1161.5384615384614
sg75
F1261.5384615384614
sbag62
(g63
g64
NtRp283
(dp284
g67
F2000
sg68
F-2000
sg69
(dp285
g71
g36
ssg72
F1250
sg73
F1125
sg74
F1192.3076923076924
sg75
F1292.3076923076924
sbag62
(g63
g64
NtRp286
(dp287
g67
F2000
sg68
F-2000
sg69
(dp288
g71
g36
ssg72
F1375
sg73
F1250
sg74
F1223.0769230769231
sg75
F1323.0769230769231
sbag62
(g63
g64
NtRp289
(dp290
g67
F2000
sg68
F-2000
sg69
(dp291
g71
g36
ssg72
F1500
sg73
F1375
sg74
F1253.8461538461538
sg75
F1353.8461538461538
sbag62
(g63
g64
NtRp292
(dp293
g67
F2000
sg68
F-2000
sg69
(dp294
g71
g36
ssg72
F1625
sg73
F1500
sg74
F1284.6153846153848
sg75
F1384.6153846153848
sbag62
(g63
g64
NtRp295
(dp296
g67
F2000
sg68
F-2000
sg69
(dp297
g71
g36
ssg72
F1750
sg73
F1625
sg74
F1315.3846153846152
sg75
F1415.3846153846152
sbag62
(g63
g64
NtRp298
(dp299
g67
F2000
sg68
F-2000
sg69
(dp300
g71
g36
ssg72
F1875
sg73
F1750
sg74
F1346.1538461538462
sg75
F1446.1538461538462
sbag62
(g63
g64
NtRp301
(dp302
g67
F2000
sg68
F-2000
sg69
(dp303
g71
g36
ssg72
F2000
sg73
F1875
sg74
F1376.9230769230769
sg75
F1476.9230769230769
sbag62
(g63
g64
NtRp304
(dp305
g67
F2000
sg68
F-2000
sg69
(dp306
g71
g36
ssg72
F2125
sg73
F2000
sg74
F1407.6923076923076
sg75
F1507.6923076923076
sbag62
(g63
g64
NtRp307
(dp308
g67
F2000
sg68
F-2000
sg69
(dp309
g71
g36
ssg72
F2250
sg73
F2125
sg74
F1438.4615384615386
sg75
F1538.4615384615386
sbag62
(g63
g64
NtRp310
(dp311
g67
F2000
sg68
F-2000
sg69
(dp312
g71
g36
ssg72
F2375
sg73
F2250
sg74
F1469.2307692307693
sg75
F1569.2307692307693
sbag62
(g63
g64
NtRp313
(dp314
g67
F2000
sg68
F-2000
sg69
(dp315
g71
g36
ssg72
F2500
sg73
F2375
sg74
F1500
sg75
F1600
sbasS'model_R'
p316
(lp317
g62
(g63
g64
NtRp318
(dp319
g67
F2000
sg68
F-2000
sg69
(dp320
g71
g5
ssg72
F-2375
sg73
F-2500
sg74
F300
sg75
F400
sbag62
(g63
g64
NtRp321
(dp322
g67
F2000
sg68
F-2000
sg69
(dp323
g71
g5
ssg72
F-2250
sg73
F-2375
sg74
F330.76923076923077
sg75
F430.76923076923077
sbag62
(g63
g64
NtRp324
(dp325
g67
F2000
sg68
F-2000
sg69
(dp326
g71
g5
ssg72
F-2125
sg73
F-2250
sg74
F361.53846153846155
sg75
F461.53846153846155
sbag62
(g63
g64
NtRp327
(dp328
g67
F2000
sg68
F-2000
sg69
(dp329
g71
g5
ssg72
F-2000
sg73
F-2125
sg74
F392.30769230769232
sg75
F492.30769230769232
sbag62
(g63
g64
NtRp330
(dp331
g67
F2000
sg68
F-2000
sg69
(dp332
g71
g5
ssg72
F-1875
sg73
F-2000
sg74
F423.07692307692309
sg75
F523.07692307692309
sbag62
(g63
g64
NtRp333
(dp334
g67
F2000
sg68
F-2000
sg69
(dp335
g71
g5
ssg72
F-1750
sg73
F-1875
sg74
F453.84615384615381
sg75
F553.84615384615381
sbag62
(g63
g64
NtRp336
(dp337
g67
F2000
sg68
F-2000
sg69
(dp338
g71
g5
ssg72
F-1625
sg73
F-1750
sg74
F484.61538461538464
sg75
F584.61538461538464
sbag62
(g63
g64
NtRp339
(dp340
g67
F2000
sg68
F-2000
sg69
(dp341
g71
g5
ssg72
F-1500
sg73
F-1625
sg74
F515.38461538461536
sg75
F615.38461538461536
sbag62
(g63
g64
NtRp342
(dp343
g67
F2000
sg68
F-2000
sg69
(dp344
g71
g5
ssg72
F-1375
sg73
F-1500
sg74
F546.15384615384619
sg75
F646.15384615384619
sbag62
(g63
g64
NtRp345
(dp346
g67
F2000
sg68
F-2000
sg69
(dp347
g71
g5
ssg72
F-1250
sg73
F-1375
sg74
F576.92307692307691
sg75
F676.92307692307691
sbag62
(g63
g64
NtRp348
(dp349
g67
F2000
sg68
F-2000
sg69
(dp350
g71
g5
ssg72
F-1125
sg73
F-1250
sg74
F607.69230769230762
sg75
F707.69230769230762
sbag62
(g63
g64
NtRp351
(dp352
g67
F2000
sg68
F-2000
sg69
(dp353
g71
g5
ssg72
F-1000
sg73
F-1125
sg74
F638.46153846153845
sg75
F738.46153846153845
sbag62
(g63
g64
NtRp354
(dp355
g67
F2000
sg68
F-2000
sg69
(dp356
g71
g5
ssg72
F-875
sg73
F-1000
sg74
F669.23076923076928
sg75
F769.23076923076928
sbag62
(g63
g64
NtRp357
(dp358
g67
F2000
sg68
F-2000
sg69
(dp359
g71
g5
ssg72
F-750
sg73
F-875
sg74
F700
sg75
F800
sbag62
(g63
g64
NtRp360
(dp361
g67
F2000
sg68
F-2000
sg69
(dp362
g71
g5
ssg72
F-625
sg73
F-750
sg74
F730.76923076923072
sg75
F830.76923076923072
sbag62
(g63
g64
NtRp363
(dp364
g67
F2000
sg68
F-2000
sg69
(dp365
g71
g5
ssg72
F-500
sg73
F-625
sg74
F761.53846153846155
sg75
F861.53846153846155
sbag62
(g63
g64
NtRp366
(dp367
g67
F2000
sg68
F-2000
sg69
(dp368
g71
g5
ssg72
F-375
sg73
F-500
sg74
F792.30769230769238
sg75
F892.30769230769238
sbag62
(g63
g64
NtRp369
(dp370
g67
F2000
sg68
F-2000
sg69
(dp371
g71
g5
ssg72
F-250
sg73
F-375
sg74
F823.07692307692309
sg75
F923.07692307692309
sbag62
(g63
g64
NtRp372
(dp373
g67
F2000
sg68
F-2000
sg69
(dp374
g71
g5
ssg72
F-125
sg73
F-250
sg74
F853.84615384615381
sg75
F953.84615384615381
sbag62
(g63
g64
NtRp375
(dp376
g67
F2000
sg68
F-2000
sg69
(dp377
g71
g5
ssg72
F0
sg73
F-125
sg74
F884.61538461538464
sg75
F984.61538461538464
sbag62
(g63
g64
NtRp378
(dp379
g67
F2000
sg68
F-2000
sg69
(dp380
g71
g5
ssg72
F125
sg73
F0
sg74
F915.38461538461536
sg75
F1015.3846153846154
sbag62
(g63
g64
NtRp381
(dp382
g67
F2000
sg68
F-2000
sg69
(dp383
g71
g5
ssg72
F250
sg73
F125
sg74
F946.15384615384619
sg75
F1046.1538461538462
sbag62
(g63
g64
NtRp384
(dp385
g67
F2000
sg68
F-2000
sg69
(dp386
g71
g5
ssg72
F375
sg73
F250
sg74
F976.92307692307691
sg75
F1076.9230769230769
sbag62
(g63
g64
NtRp387
(dp388
g67
F2000
sg68
F-2000
sg69
(dp389
g71
g5
ssg72
F500
sg73
F375
sg74
F1007.6923076923077
sg75
F1107.6923076923076
sbag62
(g63
g64
NtRp390
(dp391
g67
F2000
sg68
F-2000
sg69
(dp392
g71
g5
ssg72
F625
sg73
F500
sg74
F1038.4615384615386
sg75
F1138.4615384615386
sbag62
(g63
g64
NtRp393
(dp394
g67
F2000
sg68
F-2000
sg69
(dp395
g71
g5
ssg72
F750
sg73
F625
sg74
F1069.2307692307693
sg75
F1169.2307692307693
sbag62
(g63
g64
NtRp396
(dp397
g67
F2000
sg68
F-2000
sg69
(dp398
g71
g5
ssg72
F875
sg73
F750
sg74
F1100
sg75
F1200
sbag62
(g63
g64
NtRp399
(dp400
g67
F2000
sg68
F-2000
sg69
(dp401
g71
g5
ssg72
F1000
sg73
F875
sg74
F1130.7692307692309
sg75
F1230.7692307692309
sbag62
(g63
g64
NtRp402
(dp403
g67
F2000
sg68
F-2000
sg69
(dp404
g71
g5
ssg72
F1125
sg73
F1000
sg74
F1161.5384615384614
sg75
F1261.5384615384614
sbag62
(g63
g64
NtRp405
(dp406
g67
F2000
sg68
F-2000
sg69
(dp407
g71
g5
ssg72
F1250
sg73
F1125
sg74
F1192.3076923076924
sg75
F1292.3076923076924
sbag62
(g63
g64
NtRp408
(dp409
g67
F2000
sg68
F-2000
sg69
(dp410
g71
g5
ssg72
F1375
sg73
F1250
sg74
F1223.0769230769231
sg75
F1323.0769230769231
sbag62
(g63
g64
NtRp411
(dp412
g67
F2000
sg68
F-2000
sg69
(dp413
g71
g5
ssg72
F1500
sg73
F1375
sg74
F1253.8461538461538
sg75
F1353.8461538461538
sbag62
(g63
g64
NtRp414
(dp415
g67
F2000
sg68
F-2000
sg69
(dp416
g71
g5
ssg72
F1625
sg73
F1500
sg74
F1284.6153846153848
sg75
F1384.6153846153848
sbag62
(g63
g64
NtRp417
(dp418
g67
F2000
sg68
F-2000
sg69
(dp419
g71
g5
ssg72
F1750
sg73
F1625
sg74
F1315.3846153846152
sg75
F1415.3846153846152
sbag62
(g63
g64
NtRp420
(dp421
g67
F2000
sg68
F-2000
sg69
(dp422
g71
g5
ssg72
F1875
sg73
F1750
sg74
F1346.1538461538462
sg75
F1446.1538461538462
sbag62
(g63
g64
NtRp423
(dp424
g67
F2000
sg68
F-2000
sg69
(dp425
g71
g5
ssg72
F2000
sg73
F1875
sg74
F1376.9230769230769
sg75
F1476.9230769230769
sbag62
(g63
g64
NtRp426
(dp427
g67
F2000
sg68
F-2000
sg69
(dp428
g71
g5
ssg72
F2125
sg73
F2000
sg74
F1407.6923076923076
sg75
F1507.6923076923076
sbag62
(g63
g64
NtRp429
(dp430
g67
F2000
sg68
F-2000
sg69
(dp431
g71
g5
ssg72
F2250
sg73
F2125
sg74
F1438.4615384615386
sg75
F1538.4615384615386
sbag62
(g63
g64
NtRp432
(dp433
g67
F2000
sg68
F-2000
sg69
(dp434
g71
g5
ssg72
F2375
sg73
F2250
sg74
F1469.2307692307693
sg75
F1569.2307692307693
sbag62
(g63
g64
NtRp435
(dp436
g67
F2000
sg68
F-2000
sg69
(dp437
g71
g5
ssg72
F2500
sg73
F2375
sg74
F1500
sg75
F1600
sbas.